target datalayout = "e-m:e-p270:32:32-p271:32:32-p272:64:64-i64:64-i128:128-f80:128-n8:16:32:64-S128"
target triple = "x86_64-pc-linux-gnu"

%"class.std::filesystem::__cxx11::path" = type { %"class.std::__cxx11::basic_string", %"struct.std::filesystem::__cxx11::path::_List" }
%"class.std::__cxx11::basic_string" = type { %"struct.std::__cxx11::basic_string<char>::_Alloc_hider", i64, %union.anon }
%"struct.std::__cxx11::basic_string<char>::_Alloc_hider" = type { ptr }
%union.anon = type { i64, [8 x i8] }
%"struct.std::filesystem::__cxx11::path::_List" = type { %"class.std::unique_ptr" }
%"class.std::unique_ptr" = type { %"struct.std::__uniq_ptr_data" }
%"struct.std::__uniq_ptr_data" = type { %"class.std::__uniq_ptr_impl" }
%"class.std::__uniq_ptr_impl" = type { %"class.std::tuple" }
%"class.std::tuple" = type { %"struct.std::_Tuple_impl" }
%"struct.std::_Tuple_impl" = type { %"struct.std::_Head_base.1" }
%"struct.std::_Head_base.1" = type { ptr }

@.str.34 = private unnamed_addr constant [2 x i8] c"w\00", align 1
@.str.35 = private unnamed_addr constant [12 x i8] c"%10d  %10g\0A\00", align 1

; Function Attrs: mustprogress uwtable
define internal void @_ZL8dump_tmpPciPf(ptr noundef %0, i32 noundef %1, ptr noundef %2) #0 personality ptr @__gxx_personality_v0 {
  %4 = alloca ptr, align 8
  %5 = alloca i32, align 4
  %6 = alloca ptr, align 8
  %7 = alloca ptr, align 8
  %8 = alloca i32, align 4
  %9 = alloca %"class.std::filesystem::__cxx11::path", align 8
  %10 = alloca ptr, align 8
  %11 = alloca i32, align 4
  store ptr %0, ptr %4, align 8
  store i32 %1, ptr %5, align 4
  store ptr %2, ptr %6, align 8
  call void @_ZNSt10filesystem7__cxx114pathC2IPcS1_EERKT_NS1_6formatE(ptr noundef nonnull align 8 dereferenceable(40) %9, ptr noundef nonnull align 8 dereferenceable(8) %4, i8 noundef zeroext 2)
  %12 = invoke noundef ptr @_Z10gmx_ffopenRKNSt10filesystem7__cxx114pathEPKc(ptr noundef nonnull align 8 dereferenceable(40) %9, ptr noundef @.str.34)
          to label %13 unwind label %31

13:                                               ; preds = %3
  store ptr %12, ptr %7, align 8
  call void @_ZNSt10filesystem7__cxx114pathD2Ev(ptr noundef nonnull align 8 dereferenceable(40) %9) #13
  store i32 0, ptr %8, align 4
  br label %14

14:                                               ; preds = %28, %13
  %15 = load i32, ptr %8, align 4
  %16 = load i32, ptr %5, align 4
  %17 = icmp slt i32 %15, %16
  br i1 %17, label %18, label %35

18:                                               ; preds = %14
  %19 = load ptr, ptr %7, align 8
  %20 = load i32, ptr %8, align 4
  %21 = load ptr, ptr %6, align 8
  %22 = load i32, ptr %8, align 4
  %23 = sext i32 %22 to i64
  %24 = getelementptr inbounds float, ptr %21, i64 %23
  %25 = load float, ptr %24, align 4
  %26 = fpext float %25 to double
  %27 = call i32 (ptr, ptr, ...) @fprintf(ptr noundef %19, ptr noundef @.str.35, i32 noundef %20, double noundef %26) #13
  br label %28

28:                                               ; preds = %18
  %29 = load i32, ptr %8, align 4
  %30 = add nsw i32 %29, 1
  store i32 %30, ptr %8, align 4
  br label %14, !llvm.loop !41

31:                                               ; preds = %3
  %32 = landingpad { ptr, i32 }
          cleanup
  %33 = extractvalue { ptr, i32 } %32, 0
  store ptr %33, ptr %10, align 8
  %34 = extractvalue { ptr, i32 } %32, 1
  store i32 %34, ptr %11, align 4
  call void @_ZNSt10filesystem7__cxx114pathD2Ev(ptr noundef nonnull align 8 dereferenceable(40) %9) #13
  br label %38

35:                                               ; preds = %14
  %36 = load ptr, ptr %7, align 8
  %37 = call noundef i32 @_Z11gmx_ffcloseP8_IO_FILE(ptr noundef %36)
  ret void

38:                                               ; preds = %31
  %39 = load ptr, ptr %10, align 8
  %40 = load i32, ptr %11, align 4
  %41 = insertvalue { ptr, i32 } poison, ptr %39, 0
  %42 = insertvalue { ptr, i32 } %41, i32 %40, 1
  resume { ptr, i32 } %42
}