; Function Attrs: mustprogress uwtable
define internal fastcc void @_ZL8dump_tmpPciPf(ptr noundef %0, i32 noundef %1, ptr nocapture noundef readonly %2) unnamed_addr #0 personality ptr @__gxx_personality_v0 {
  %4 = alloca ptr, align 8
  %5 = alloca %"class.std::filesystem::__cxx11::path", align 8
  store ptr %0, ptr %4, align 8
  call void @_ZNSt10filesystem7__cxx114pathC2IPcS1_EERKT_NS1_6formatE(ptr noundef nonnull align 8 dereferenceable(40) %5, ptr noundef nonnull align 8 dereferenceable(8) %4, i8 noundef zeroext 2)
  %6 = invoke noundef ptr @_Z10gmx_ffopenRKNSt10filesystem7__cxx114pathEPKc(ptr noundef nonnull align 8 dereferenceable(40) %5, ptr noundef nonnull @.str.34)
          to label %7 unwind label %17

7:                                                ; preds = %3
  %8 = getelementptr inbounds i8, ptr %5, i64 32
  %9 = load ptr, ptr %8, align 8
  %.not.i.i.i = icmp eq ptr %9, null
  br i1 %.not.i.i.i, label %_ZNSt10filesystem7__cxx114pathD2Ev.exit, label %10

10:                                               ; preds = %7
  call void @_ZNKSt10filesystem7__cxx114path5_List13_Impl_deleterclEPNS2_5_ImplE(ptr noundef nonnull align 1 dereferenceable(1) %8, ptr noundef nonnull %9) #19
  br label %_ZNSt10filesystem7__cxx114pathD2Ev.exit

_ZNSt10filesystem7__cxx114pathD2Ev.exit:          ; preds = %7, %10
  store ptr null, ptr %8, align 8
  call void @_ZNSt7__cxx1112basic_stringIcSt11char_traitsIcESaIcEED1Ev(ptr noundef nonnull align 8 dereferenceable(32) %5) #19
  %11 = icmp sgt i32 %1, 0
  br i1 %11, label %.lr.ph.preheader, label %._crit_edge

.lr.ph.preheader:                                 ; preds = %_ZNSt10filesystem7__cxx114pathD2Ev.exit
  %wide.trip.count = zext nneg i32 %1 to i64
  br label %.lr.ph

.lr.ph:                                           ; preds = %.lr.ph.preheader, %.lr.ph
  %indvars.iv = phi i64 [ 0, %.lr.ph.preheader ], [ %indvars.iv.next, %.lr.ph ]
  %12 = getelementptr inbounds float, ptr %2, i64 %indvars.iv
  %13 = load float, ptr %12, align 4
  %14 = fpext float %13 to double
  %15 = trunc nuw nsw i64 %indvars.iv to i32
  %16 = call i32 (ptr, ptr, ...) @fprintf(ptr noundef %6, ptr noundef nonnull @.str.35, i32 noundef %15, double noundef %14) #19
  %indvars.iv.next = add nuw nsw i64 %indvars.iv, 1
  %exitcond.not = icmp eq i64 %indvars.iv.next, %wide.trip.count
  br i1 %exitcond.not, label %._crit_edge, label %.lr.ph, !llvm.loop !37

17:                                               ; preds = %3
  %18 = landingpad { ptr, i32 }
          cleanup
  call void @_ZNSt10filesystem7__cxx114pathD2Ev(ptr noundef nonnull align 8 dereferenceable(40) %5) #19
  resume { ptr, i32 } %18

._crit_edge:                                      ; preds = %.lr.ph, %_ZNSt10filesystem7__cxx114pathD2Ev.exit
  %19 = call noundef i32 @_Z11gmx_ffcloseP8_IO_FILE(ptr noundef %6)
  ret void
}